(lp1
(lp2
(lp3
F0
aF265
aa(lp4
F0
aF817
aa(lp5
F0
aF786
aa(lp6
F0
aF659
aa(lp7
F0
aF832
aa(lp8
F0
aF623
aa(lp9
F0
aF230
aa(lp10
F0
aF422
aa(lp11
F0
aF587
aa(lp12
F0
aF127
aa(lp13
F0
aF415
aa(lp14
F0
aF64
aa(lp15
F0
aF300
aa(lp16
F0
aF293
aa(lp17
F0
aF299
aa(lp18
F0
aF542
aa(lp19
F0
aF400
aa(lp20
F0
aF119
aa(lp21
F0
aF461
aa(lp22
F0
aF17
aa(lp23
F0
aF235
aa(lp24
F0
aF3
aa(lp25
F0
aF335
aa(lp26
F0
aF273
aa(lp27
F0
aF579
aa(lp28
F0
aF472
aa(lp29
F0
aF359
aa(lp30
F0
aF29
aa(lp31
F0
aF740
aa(lp32
F0
aF748
aa(lp33
F0
aF565
aa(lp34
F0
aF191
aa(lp35
F0
aF143
aa(lp36
F0
aF499
aa(lp37
F0
aF708
aa(lp38
F0
aF82
aa(lp39
F0
aF544
aa(lp40
F0
aF60
aa(lp41
F0
aF251
aa(lp42
F0
aF379
aa(lp43
F0
aF629
aa(lp44
F0
aF330
aa(lp45
F0
aF345
aa(lp46
F0
aF838
aa(lp47
F0
aF97
aa(lp48
F0
aF684
aa(lp49
F0
aF104
aa(lp50
F0
aF534
aa(lp51
F0
aF196
aa(lp52
F0
aF417
aa(lp53
F0
aF324
aa(lp54
F0
aF219
aa(lp55
F0
aF253
aa(lp56
F0
aF172
aa(lp57
F0
aF413
aa(lp58
F0
aF312
aa(lp59
F0
aF600
aa(lp60
F0
aF599
aa(lp61
F0
aF751
aa(lp62
F0
aF141
aa(lp63
F0
aF403
aa(lp64
F0
aF756
aa(lp65
F1
aF27
aa(lp66
F1
aF98
aa(lp67
F1
aF92
aa(lp68
F1
aF431
aa(lp69
F1
aF221
aa(lp70
F1
aF406
aa(lp71
F1
aF393
aa(lp72
F1
aF202
aa(lp73
F1
aF409
aa(lp74
F1
aF396
aa(lp75
F1
aF18
aa(lp76
F1
aF333
aa(lp77
F1
aF285
aa(lp78
F1
aF94
aa(lp79
F1
aF44
aa(lp80
F1
aF31
aa(lp81
F1
aF347
aa(lp82
F1
aF386
aa(lp83
F1
aF125
aa(lp84
F1
aF332
aa(lp85
F1
aF438
aa(lp86
F1
aF110
aa(lp87
F1
aF388
aa(lp88
F1
aF269
aa(lp89
F1
aF266
aa(lp90
F1
aF145
aa(lp91
F1
aF109
aa(lp92
F1
aF298
aa(lp93
F1
aF361
aa(lp94
F1
aF210
aa(lp95
F1
aF146
aa(lp96
F1
aF59
aa(lp97
F2
aF1
aa(lp98
F2
aF16
aa(lp99
F2
aF69
aa(lp100
F2
aF12
aa(lp101
F2
aF42
aa(lp102
F2
aF71
aaa(lp103
(lp104
F0
aF140
aa(lp105
F0
aF717
aa(lp106
F0
aF807
aa(lp107
F0
aF476
aa(lp108
F0
aF180
aa(lp109
F0
aF138
aa(lp110
F0
aF553
aa(lp111
F0
aF609
aa(lp112
F0
aF469
aa(lp113
F0
aF90
aa(lp114
F0
aF438
aa(lp115
F0
aF292
aa(lp116
F0
aF771
aa(lp117
F0
aF351
aa(lp118
F0
aF483
aa(lp119
F0
aF516
aa(lp120
F0
aF538
aa(lp121
F0
aF325
aa(lp122
F0
aF597
aa(lp123
F0
aF287
aa(lp124
F0
aF391
aa(lp125
F0
aF329
aa(lp126
F0
aF434
aa(lp127
F0
aF570
aa(lp128
F0
aF162
aa(lp129
F0
aF557
aa(lp130
F0
aF159
aa(lp131
F0
aF320
aa(lp132
F0
aF384
aa(lp133
F0
aF426
aa(lp134
F0
aF834
aa(lp135
F0
aF135
aa(lp136
F0
aF759
aa(lp137
F0
aF443
aa(lp138
F0
aF442
aa(lp139
F0
aF272
aa(lp140
F0
aF823
aa(lp141
F0
aF139
aa(lp142
F0
aF495
aa(lp143
F0
aF666
aa(lp144
F0
aF312
aa(lp145
F0
aF602
aa(lp146
F0
aF126
aa(lp147
F0
aF371
aa(lp148
F0
aF524
aa(lp149
F0
aF235
aa(lp150
F0
aF500
aa(lp151
F0
aF398
aa(lp152
F0
aF501
aa(lp153
F0
aF227
aa(lp154
F0
aF723
aa(lp155
F0
aF767
aa(lp156
F0
aF173
aa(lp157
F0
aF20
aa(lp158
F0
aF84
aa(lp159
F0
aF658
aa(lp160
F0
aF471
aa(lp161
F0
aF137
aa(lp162
F0
aF158
aa(lp163
F0
aF54
aa(lp164
F0
aF168
aa(lp165
F0
aF703
aa(lp166
F1
aF213
aa(lp167
F1
aF84
aa(lp168
F1
aF411
aa(lp169
F1
aF236
aa(lp170
F1
aF45
aa(lp171
F1
aF93
aa(lp172
F1
aF277
aa(lp173
F1
aF169
aa(lp174
F1
aF408
aa(lp175
F1
aF144
aa(lp176
F1
aF121
aa(lp177
F1
aF329
aa(lp178
F1
aF40
aa(lp179
F1
aF216
aa(lp180
F1
aF30
aa(lp181
F1
aF122
aa(lp182
F1
aF401
aa(lp183
F1
aF226
aa(lp184
F1
aF7
aa(lp185
F1
aF182
aa(lp186
F1
aF358
aa(lp187
F1
aF368
aa(lp188
F1
aF114
aa(lp189
F1
aF439
aa(lp190
F1
aF115
aa(lp191
F1
aF330
aa(lp192
F1
aF234
aa(lp193
F1
aF403
aa(lp194
F1
aF428
aa(lp195
F1
aF147
aa(lp196
F1
aF117
aa(lp197
F1
aF379
aa(lp198
F2
aF11
aa(lp199
F2
aF69
aa(lp200
F2
aF44
aa(lp201
F2
aF30
aa(lp202
F2
aF55
aa(lp203
F2
aF4
aaa(lp204
(lp205
F0
aF737
aa(lp206
F0
aF725
aa(lp207
F0
aF344
aa(lp208
F0
aF476
aa(lp209
F0
aF430
aa(lp210
F0
aF421
aa(lp211
F0
aF167
aa(lp212
F0
aF222
aa(lp213
F0
aF621
aa(lp214
F0
aF607
aa(lp215
F0
aF39
aa(lp216
F0
aF537
aa(lp217
F0
aF314
aa(lp218
F0
aF339
aa(lp219
F0
aF647
aa(lp220
F0
aF562
aa(lp221
F0
aF561
aa(lp222
F0
aF417
aa(lp223
F0
aF467
aa(lp224
F0
aF485
aa(lp225
F0
aF623
aa(lp226
F0
aF87
aa(lp227
F0
aF701
aa(lp228
F0
aF440
aa(lp229
F0
aF67
aa(lp230
F0
aF458
aa(lp231
F0
aF282
aa(lp232
F0
aF280
aa(lp233
F0
aF676
aa(lp234
F0
aF787
aa(lp235
F0
aF154
aa(lp236
F0
aF714
aa(lp237
F0
aF342
aa(lp238
F0
aF141
aa(lp239
F0
aF266
aa(lp240
F0
aF842
aa(lp241
F0
aF755
aa(lp242
F0
aF557
aa(lp243
F0
aF434
aa(lp244
F0
aF514
aa(lp245
F0
aF483
aa(lp246
F0
aF575
aa(lp247
F0
aF227
aa(lp248
F0
aF90
aa(lp249
F0
aF351
aa(lp250
F0
aF558
aa(lp251
F0
aF477
aa(lp252
F0
aF487
aa(lp253
F0
aF43
aa(lp254
F0
aF292
aa(lp255
F0
aF319
aa(lp256
F0
aF315
aa(lp257
F0
aF608
aa(lp258
F0
aF534
aa(lp259
F0
aF542
aa(lp260
F0
aF242
aa(lp261
F0
aF137
aa(lp262
F0
aF772
aa(lp263
F0
aF313
aa(lp264
F0
aF463
aa(lp265
F0
aF231
aa(lp266
F0
aF177
aa(lp267
F1
aF406
aa(lp268
F1
aF21
aa(lp269
F1
aF352
aa(lp270
F1
aF414
aa(lp271
F1
aF70
aa(lp272
F1
aF113
aa(lp273
F1
aF415
aa(lp274
F1
aF165
aa(lp275
F1
aF265
aa(lp276
F1
aF4
aa(lp277
F1
aF166
aa(lp278
F1
aF211
aa(lp279
F1
aF205
aa(lp280
F1
aF41
aa(lp281
F1
aF136
aa(lp282
F1
aF374
aa(lp283
F1
aF377
aa(lp284
F1
aF183
aa(lp285
F1
aF184
aa(lp286
F1
aF33
aa(lp287
F1
aF322
aa(lp288
F1
aF72
aa(lp289
F1
aF160
aa(lp290
F1
aF149
aa(lp291
F1
aF253
aa(lp292
F1
aF384
aa(lp293
F1
aF282
aa(lp294
F1
aF34
aa(lp295
F1
aF225
aa(lp296
F1
aF145
aa(lp297
F1
aF260
aa(lp298
F1
aF159
aa(lp299
F2
aF15
aa(lp300
F2
aF17
aa(lp301
F2
aF36
aa(lp302
F2
aF11
aa(lp303
F2
aF0
aa(lp304
F2
aF34
aaa(lp305
(lp306
F0
aF626
aa(lp307
F0
aF458
aa(lp308
F0
aF790
aa(lp309
F0
aF315
aa(lp310
F0
aF3
aa(lp311
F0
aF838
aa(lp312
F0
aF658
aa(lp313
F0
aF174
aa(lp314
F0
aF751
aa(lp315
F0
aF49
aa(lp316
F0
aF38
aa(lp317
F0
aF110
aa(lp318
F0
aF620
aa(lp319
F0
aF396
aa(lp320
F0
aF313
aa(lp321
F0
aF431
aa(lp322
F0
aF282
aa(lp323
F0
aF179
aa(lp324
F0
aF243
aa(lp325
F0
aF793
aa(lp326
F0
aF533
aa(lp327
F0
aF717
aa(lp328
F0
aF829
aa(lp329
F0
aF785
aa(lp330
F0
aF120
aa(lp331
F0
aF187
aa(lp332
F0
aF39
aa(lp333
F0
aF256
aa(lp334
F0
aF607
aa(lp335
F0
aF184
aa(lp336
F0
aF826
aa(lp337
F0
aF14
aa(lp338
F0
aF438
aa(lp339
F0
aF290
aa(lp340
F0
aF484
aa(lp341
F0
aF664
aa(lp342
F0
aF233
aa(lp343
F0
aF661
aa(lp344
F0
aF842
aa(lp345
F0
aF701
aa(lp346
F0
aF713
aa(lp347
F0
aF455
aa(lp348
F0
aF734
aa(lp349
F0
aF756
aa(lp350
F0
aF259
aa(lp351
F0
aF457
aa(lp352
F0
aF575
aa(lp353
F0
aF185
aa(lp354
F0
aF580
aa(lp355
F0
aF96
aa(lp356
F0
aF296
aa(lp357
F0
aF97
aa(lp358
F0
aF554
aa(lp359
F0
aF352
aa(lp360
F0
aF211
aa(lp361
F0
aF445
aa(lp362
F0
aF695
aa(lp363
F0
aF390
aa(lp364
F0
aF424
aa(lp365
F0
aF397
aa(lp366
F0
aF5
aa(lp367
F0
aF759
aa(lp368
F1
aF398
aa(lp369
F1
aF336
aa(lp370
F1
aF365
aa(lp371
F1
aF311
aa(lp372
F1
aF280
aa(lp373
F1
aF243
aa(lp374
F1
aF51
aa(lp375
F1
aF77
aa(lp376
F1
aF248
aa(lp377
F1
aF162
aa(lp378
F1
aF230
aa(lp379
F1
aF12
aa(lp380
F1
aF323
aa(lp381
F1
aF438
aa(lp382
F1
aF181
aa(lp383
F1
aF179
aa(lp384
F1
aF325
aa(lp385
F1
aF270
aa(lp386
F1
aF123
aa(lp387
F1
aF148
aa(lp388
F1
aF143
aa(lp389
F1
aF425
aa(lp390
F1
aF6
aa(lp391
F1
aF90
aa(lp392
F1
aF357
aa(lp393
F1
aF392
aa(lp394
F1
aF344
aa(lp395
F1
aF422
aa(lp396
F1
aF82
aa(lp397
F1
aF218
aa(lp398
F1
aF81
aa(lp399
F1
aF285
aa(lp400
F2
aF31
aa(lp401
F2
aF29
aa(lp402
F2
aF10
aa(lp403
F2
aF42
aa(lp404
F2
aF35
aa(lp405
F2
aF72
aaa(lp406
(lp407
F0
aF384
aa(lp408
F0
aF424
aa(lp409
F0
aF12
aa(lp410
F0
aF501
aa(lp411
F0
aF769
aa(lp412
F0
aF137
aa(lp413
F0
aF640
aa(lp414
F0
aF564
aa(lp415
F0
aF81
aa(lp416
F0
aF395
aa(lp417
F0
aF233
aa(lp418
F0
aF425
aa(lp419
F0
aF522
aa(lp420
F0
aF40
aa(lp421
F0
aF449
aa(lp422
F0
aF390
aa(lp423
F0
aF17
aa(lp424
F0
aF369
aa(lp425
F0
aF774
aa(lp426
F0
aF687
aa(lp427
F0
aF491
aa(lp428
F0
aF679
aa(lp429
F0
aF740
aa(lp430
F0
aF73
aa(lp431
F0
aF606
aa(lp432
F0
aF418
aa(lp433
F0
aF538
aa(lp434
F0
aF747
aa(lp435
F0
aF514
aa(lp436
F0
aF712
aa(lp437
F0
aF716
aa(lp438
F0
aF746
aa(lp439
F0
aF354
aa(lp440
F0
aF383
aa(lp441
F0
aF581
aa(lp442
F0
aF185
aa(lp443
F0
aF512
aa(lp444
F0
aF273
aa(lp445
F0
aF738
aa(lp446
F0
aF139
aa(lp447
F0
aF194
aa(lp448
F0
aF766
aa(lp449
F0
aF147
aa(lp450
F0
aF672
aa(lp451
F0
aF50
aa(lp452
F0
aF277
aa(lp453
F0
aF237
aa(lp454
F0
aF108
aa(lp455
F0
aF563
aa(lp456
F0
aF245
aa(lp457
F0
aF598
aa(lp458
F0
aF447
aa(lp459
F0
aF55
aa(lp460
F0
aF39
aa(lp461
F0
aF539
aa(lp462
F0
aF621
aa(lp463
F0
aF671
aa(lp464
F0
aF433
aa(lp465
F0
aF342
aa(lp466
F0
aF239
aa(lp467
F0
aF177
aa(lp468
F0
aF567
aa(lp469
F1
aF243
aa(lp470
F1
aF399
aa(lp471
F1
aF191
aa(lp472
F1
aF179
aa(lp473
F1
aF178
aa(lp474
F1
aF226
aa(lp475
F1
aF431
aa(lp476
F1
aF27
aa(lp477
F1
aF252
aa(lp478
F1
aF356
aa(lp479
F1
aF139
aa(lp480
F1
aF129
aa(lp481
F1
aF172
aa(lp482
F1
aF428
aa(lp483
F1
aF168
aa(lp484
F1
aF223
aa(lp485
F1
aF323
aa(lp486
F1
aF278
aa(lp487
F1
aF159
aa(lp488
F1
aF61
aa(lp489
F1
aF152
aa(lp490
F1
aF259
aa(lp491
F1
aF123
aa(lp492
F1
aF330
aa(lp493
F1
aF165
aa(lp494
F1
aF12
aa(lp495
F1
aF20
aa(lp496
F1
aF430
aa(lp497
F1
aF403
aa(lp498
F1
aF357
aa(lp499
F1
aF305
aa(lp500
F1
aF69
aa(lp501
F2
aF60
aa(lp502
F2
aF37
aa(lp503
F2
aF48
aa(lp504
F2
aF5
aa(lp505
F2
aF76
aa(lp506
F2
aF43
aaa(lp507
(lp508
F0
aF635
aa(lp509
F0
aF312
aa(lp510
F0
aF313
aa(lp511
F0
aF3
aa(lp512
F0
aF213
aa(lp513
F0
aF788
aa(lp514
F0
aF785
aa(lp515
F0
aF322
aa(lp516
F0
aF103
aa(lp517
F0
aF217
aa(lp518
F0
aF694
aa(lp519
F0
aF656
aa(lp520
F0
aF576
aa(lp521
F0
aF52
aa(lp522
F0
aF613
aa(lp523
F0
aF445
aa(lp524
F0
aF590
aa(lp525
F0
aF779
aa(lp526
F0
aF360
aa(lp527
F0
aF458
aa(lp528
F0
aF163
aa(lp529
F0
aF761
aa(lp530
F0
aF782
aa(lp531
F0
aF544
aa(lp532
F0
aF126
aa(lp533
F0
aF242
aa(lp534
F0
aF229
aa(lp535
F0
aF415
aa(lp536
F0
aF686
aa(lp537
F0
aF218
aa(lp538
F0
aF352
aa(lp539
F0
aF228
aa(lp540
F0
aF191
aa(lp541
F0
aF355
aa(lp542
F0
aF570
aa(lp543
F0
aF625
aa(lp544
F0
aF611
aa(lp545
F0
aF600
aa(lp546
F0
aF531
aa(lp547
F0
aF119
aa(lp548
F0
aF833
aa(lp549
F0
aF306
aa(lp550
F0
aF606
aa(lp551
F0
aF349
aa(lp552
F0
aF740
aa(lp553
F0
aF398
aa(lp554
F0
aF425
aa(lp555
F0
aF708
aa(lp556
F0
aF556
aa(lp557
F0
aF222
aa(lp558
F0
aF338
aa(lp559
F0
aF0
aa(lp560
F0
aF363
aa(lp561
F0
aF292
aa(lp562
F0
aF636
aa(lp563
F0
aF707
aa(lp564
F0
aF824
aa(lp565
F0
aF111
aa(lp566
F0
aF77
aa(lp567
F0
aF811
aa(lp568
F0
aF451
aa(lp569
F0
aF463
aa(lp570
F1
aF150
aa(lp571
F1
aF35
aa(lp572
F1
aF105
aa(lp573
F1
aF394
aa(lp574
F1
aF202
aa(lp575
F1
aF57
aa(lp576
F1
aF168
aa(lp577
F1
aF303
aa(lp578
F1
aF247
aa(lp579
F1
aF313
aa(lp580
F1
aF71
aa(lp581
F1
aF218
aa(lp582
F1
aF238
aa(lp583
F1
aF206
aa(lp584
F1
aF86
aa(lp585
F1
aF214
aa(lp586
F1
aF78
aa(lp587
F1
aF183
aa(lp588
F1
aF432
aa(lp589
F1
aF392
aa(lp590
F1
aF54
aa(lp591
F1
aF366
aa(lp592
F1
aF319
aa(lp593
F1
aF149
aa(lp594
F1
aF27
aa(lp595
F1
aF270
aa(lp596
F1
aF307
aa(lp597
F1
aF225
aa(lp598
F1
aF387
aa(lp599
F1
aF232
aa(lp600
F1
aF72
aa(lp601
F1
aF425
aa(lp602
F2
aF4
aa(lp603
F2
aF50
aa(lp604
F2
aF34
aa(lp605
F2
aF41
aa(lp606
F2
aF73
aa(lp607
F2
aF40
aaa(lp608
(lp609
F0
aF528
aa(lp610
F0
aF591
aa(lp611
F0
aF754
aa(lp612
F0
aF555
aa(lp613
F0
aF554
aa(lp614
F0
aF320
aa(lp615
F0
aF162
aa(lp616
F0
aF121
aa(lp617
F0
aF14
aa(lp618
F0
aF108
aa(lp619
F0
aF181
aa(lp620
F0
aF645
aa(lp621
F0
aF744
aa(lp622
F0
aF286
aa(lp623
F0
aF657
aa(lp624
F0
aF360
aa(lp625
F0
aF357
aa(lp626
F0
aF841
aa(lp627
F0
aF786
aa(lp628
F0
aF677
aa(lp629
F0
aF606
aa(lp630
F0
aF36
aa(lp631
F0
aF308
aa(lp632
F0
aF183
aa(lp633
F0
aF699
aa(lp634
F0
aF171
aa(lp635
F0
aF586
aa(lp636
F0
aF824
aa(lp637
F0
aF387
aa(lp638
F0
aF279
aa(lp639
F0
aF489
aa(lp640
F0
aF419
aa(lp641
F0
aF499
aa(lp642
F0
aF70
aa(lp643
F0
aF449
aa(lp644
F0
aF302
aa(lp645
F0
aF89
aa(lp646
F0
aF597
aa(lp647
F0
aF500
aa(lp648
F0
aF601
aa(lp649
F0
aF756
aa(lp650
F0
aF291
aa(lp651
F0
aF47
aa(lp652
F0
aF723
aa(lp653
F0
aF149
aa(lp654
F0
aF76
aa(lp655
F0
aF737
aa(lp656
F0
aF246
aa(lp657
F0
aF722
aa(lp658
F0
aF751
aa(lp659
F0
aF634
aa(lp660
F0
aF281
aa(lp661
F0
aF124
aa(lp662
F0
aF67
aa(lp663
F0
aF397
aa(lp664
F0
aF422
aa(lp665
F0
aF724
aa(lp666
F0
aF819
aa(lp667
F0
aF640
aa(lp668
F0
aF760
aa(lp669
F0
aF834
aa(lp670
F0
aF215
aa(lp671
F1
aF51
aa(lp672
F1
aF47
aa(lp673
F1
aF262
aa(lp674
F1
aF263
aa(lp675
F1
aF115
aa(lp676
F1
aF19
aa(lp677
F1
aF227
aa(lp678
F1
aF283
aa(lp679
F1
aF184
aa(lp680
F1
aF265
aa(lp681
F1
aF129
aa(lp682
F1
aF157
aa(lp683
F1
aF403
aa(lp684
F1
aF212
aa(lp685
F1
aF71
aa(lp686
F1
aF54
aa(lp687
F1
aF396
aa(lp688
F1
aF70
aa(lp689
F1
aF34
aa(lp690
F1
aF306
aa(lp691
F1
aF117
aa(lp692
F1
aF215
aa(lp693
F1
aF28
aa(lp694
F1
aF438
aa(lp695
F1
aF109
aa(lp696
F1
aF268
aa(lp697
F1
aF349
aa(lp698
F1
aF400
aa(lp699
F1
aF93
aa(lp700
F1
aF168
aa(lp701
F1
aF267
aa(lp702
F1
aF280
aa(lp703
F2
aF57
aa(lp704
F2
aF67
aa(lp705
F2
aF2
aa(lp706
F2
aF62
aa(lp707
F2
aF48
aa(lp708
F2
aF13
aaa(lp709
(lp710
F0
aF649
aa(lp711
F0
aF475
aa(lp712
F0
aF270
aa(lp713
F0
aF380
aa(lp714
F0
aF55
aa(lp715
F0
aF129
aa(lp716
F0
aF173
aa(lp717
F0
aF420
aa(lp718
F0
aF354
aa(lp719
F0
aF319
aa(lp720
F0
aF750
aa(lp721
F0
aF563
aa(lp722
F0
aF245
aa(lp723
F0
aF697
aa(lp724
F0
aF28
aa(lp725
F0
aF20
aa(lp726
F0
aF732
aa(lp727
F0
aF153
aa(lp728
F0
aF321
aa(lp729
F0
aF595
aa(lp730
F0
aF838
aa(lp731
F0
aF662
aa(lp732
F0
aF642
aa(lp733
F0
aF541
aa(lp734
F0
aF813
aa(lp735
F0
aF327
aa(lp736
F0
aF604
aa(lp737
F0
aF797
aa(lp738
F0
aF664
aa(lp739
F0
aF142
aa(lp740
F0
aF411
aa(lp741
F0
aF434
aa(lp742
F0
aF174
aa(lp743
F0
aF562
aa(lp744
F0
aF828
aa(lp745
F0
aF159
aa(lp746
F0
aF835
aa(lp747
F0
aF599
aa(lp748
F0
aF194
aa(lp749
F0
aF525
aa(lp750
F0
aF431
aa(lp751
F0
aF826
aa(lp752
F0
aF688
aa(lp753
F0
aF317
aa(lp754
F0
aF248
aa(lp755
F0
aF186
aa(lp756
F0
aF494
aa(lp757
F0
aF489
aa(lp758
F0
aF806
aa(lp759
F0
aF388
aa(lp760
F0
aF268
aa(lp761
F0
aF210
aa(lp762
F0
aF99
aa(lp763
F0
aF293
aa(lp764
F0
aF839
aa(lp765
F0
aF580
aa(lp766
F0
aF273
aa(lp767
F0
aF480
aa(lp768
F0
aF103
aa(lp769
F0
aF824
aa(lp770
F0
aF254
aa(lp771
F0
aF188
aa(lp772
F1
aF439
aa(lp773
F1
aF192
aa(lp774
F1
aF53
aa(lp775
F1
aF429
aa(lp776
F1
aF156
aa(lp777
F1
aF351
aa(lp778
F1
aF177
aa(lp779
F1
aF316
aa(lp780
F1
aF333
aa(lp781
F1
aF419
aa(lp782
F1
aF362
aa(lp783
F1
aF70
aa(lp784
F1
aF125
aa(lp785
F1
aF182
aa(lp786
F1
aF93
aa(lp787
F1
aF294
aa(lp788
F1
aF178
aa(lp789
F1
aF339
aa(lp790
F1
aF248
aa(lp791
F1
aF437
aa(lp792
F1
aF215
aa(lp793
F1
aF23
aa(lp794
F1
aF426
aa(lp795
F1
aF201
aa(lp796
F1
aF56
aa(lp797
F1
aF8
aa(lp798
F1
aF209
aa(lp799
F1
aF338
aa(lp800
F1
aF185
aa(lp801
F1
aF169
aa(lp802
F1
aF116
aa(lp803
F1
aF127
aa(lp804
F2
aF19
aa(lp805
F2
aF69
aa(lp806
F2
aF64
aa(lp807
F2
aF76
aa(lp808
F2
aF6
aa(lp809
F2
aF22
aaa(lp810
(lp811
F0
aF292
aa(lp812
F0
aF471
aa(lp813
F0
aF329
aa(lp814
F0
aF435
aa(lp815
F0
aF207
aa(lp816
F0
aF518
aa(lp817
F0
aF549
aa(lp818
F0
aF795
aa(lp819
F0
aF402
aa(lp820
F0
aF725
aa(lp821
F0
aF831
aa(lp822
F0
aF438
aa(lp823
F0
aF148
aa(lp824
F0
aF446
aa(lp825
F0
aF500
aa(lp826
F0
aF336
aa(lp827
F0
aF59
aa(lp828
F0
aF401
aa(lp829
F0
aF286
aa(lp830
F0
aF793
aa(lp831
F0
aF684
aa(lp832
F0
aF483
aa(lp833
F0
aF357
aa(lp834
F0
aF99
aa(lp835
F0
aF273
aa(lp836
F0
aF13
aa(lp837
F0
aF353
aa(lp838
F0
aF366
aa(lp839
F0
aF306
aa(lp840
F0
aF550
aa(lp841
F0
aF175
aa(lp842
F0
aF322
aa(lp843
F0
aF612
aa(lp844
F0
aF537
aa(lp845
F0
aF758
aa(lp846
F0
aF638
aa(lp847
F0
aF531
aa(lp848
F0
aF308
aa(lp849
F0
aF601
aa(lp850
F0
aF168
aa(lp851
F0
aF743
aa(lp852
F0
aF566
aa(lp853
F0
aF69
aa(lp854
F0
aF691
aa(lp855
F0
aF120
aa(lp856
F0
aF218
aa(lp857
F0
aF422
aa(lp858
F0
aF325
aa(lp859
F0
aF182
aa(lp860
F0
aF383
aa(lp861
F0
aF664
aa(lp862
F0
aF532
aa(lp863
F0
aF824
aa(lp864
F0
aF567
aa(lp865
F0
aF24
aa(lp866
F0
aF320
aa(lp867
F0
aF200
aa(lp868
F0
aF348
aa(lp869
F0
aF21
aa(lp870
F0
aF83
aa(lp871
F0
aF589
aa(lp872
F0
aF119
aa(lp873
F1
aF129
aa(lp874
F1
aF291
aa(lp875
F1
aF62
aa(lp876
F1
aF402
aa(lp877
F1
aF344
aa(lp878
F1
aF391
aa(lp879
F1
aF86
aa(lp880
F1
aF316
aa(lp881
F1
aF284
aa(lp882
F1
aF1
aa(lp883
F1
aF115
aa(lp884
F1
aF174
aa(lp885
F1
aF398
aa(lp886
F1
aF414
aa(lp887
F1
aF348
aa(lp888
F1
aF318
aa(lp889
F1
aF106
aa(lp890
F1
aF153
aa(lp891
F1
aF27
aa(lp892
F1
aF160
aa(lp893
F1
aF111
aa(lp894
F1
aF3
aa(lp895
F1
aF295
aa(lp896
F1
aF331
aa(lp897
F1
aF237
aa(lp898
F1
aF56
aa(lp899
F1
aF323
aa(lp900
F1
aF187
aa(lp901
F1
aF423
aa(lp902
F1
aF136
aa(lp903
F1
aF434
aa(lp904
F1
aF230
aa(lp905
F2
aF42
aa(lp906
F2
aF32
aa(lp907
F2
aF56
aa(lp908
F2
aF20
aa(lp909
F2
aF36
aa(lp910
F2
aF13
aaa(lp911
(lp912
F0
aF369
aa(lp913
F0
aF85
aa(lp914
F0
aF360
aa(lp915
F0
aF794
aa(lp916
F0
aF423
aa(lp917
F0
aF729
aa(lp918
F0
aF682
aa(lp919
F0
aF168
aa(lp920
F0
aF564
aa(lp921
F0
aF774
aa(lp922
F0
aF191
aa(lp923
F0
aF803
aa(lp924
F0
aF653
aa(lp925
F0
aF554
aa(lp926
F0
aF642
aa(lp927
F0
aF236
aa(lp928
F0
aF322
aa(lp929
F0
aF317
aa(lp930
F0
aF623
aa(lp931
F0
aF700
aa(lp932
F0
aF362
aa(lp933
F0
aF29
aa(lp934
F0
aF290
aa(lp935
F0
aF465
aa(lp936
F0
aF473
aa(lp937
F0
aF609
aa(lp938
F0
aF585
aa(lp939
F0
aF443
aa(lp940
F0
aF261
aa(lp941
F0
aF136
aa(lp942
F0
aF115
aa(lp943
F0
aF692
aa(lp944
F0
aF798
aa(lp945
F0
aF323
aa(lp946
F0
aF520
aa(lp947
F0
aF20
aa(lp948
F0
aF94
aa(lp949
F0
aF32
aa(lp950
F0
aF344
aa(lp951
F0
aF203
aa(lp952
F0
aF714
aa(lp953
F0
aF771
aa(lp954
F0
aF104
aa(lp955
F0
aF55
aa(lp956
F0
aF704
aa(lp957
F0
aF616
aa(lp958
F0
aF571
aa(lp959
F0
aF152
aa(lp960
F0
aF715
aa(lp961
F0
aF345
aa(lp962
F0
aF280
aa(lp963
F0
aF551
aa(lp964
F0
aF155
aa(lp965
F0
aF788
aa(lp966
F0
aF450
aa(lp967
F0
aF232
aa(lp968
F0
aF550
aa(lp969
F0
aF439
aa(lp970
F0
aF76
aa(lp971
F0
aF596
aa(lp972
F0
aF617
aa(lp973
F0
aF646
aa(lp974
F1
aF240
aa(lp975
F1
aF342
aa(lp976
F1
aF164
aa(lp977
F1
aF0
aa(lp978
F1
aF234
aa(lp979
F1
aF22
aa(lp980
F1
aF67
aa(lp981
F1
aF424
aa(lp982
F1
aF368
aa(lp983
F1
aF235
aa(lp984
F1
aF116
aa(lp985
F1
aF335
aa(lp986
F1
aF258
aa(lp987
F1
aF282
aa(lp988
F1
aF367
aa(lp989
F1
aF329
aa(lp990
F1
aF354
aa(lp991
F1
aF344
aa(lp992
F1
aF228
aa(lp993
F1
aF167
aa(lp994
F1
aF66
aa(lp995
F1
aF29
aa(lp996
F1
aF243
aa(lp997
F1
aF350
aa(lp998
F1
aF422
aa(lp999
F1
aF386
aa(lp1000
F1
aF253
aa(lp1001
F1
aF388
aa(lp1002
F1
aF96
aa(lp1003
F1
aF418
aa(lp1004
F1
aF173
aa(lp1005
F1
aF47
aa(lp1006
F2
aF31
aa(lp1007
F2
aF38
aa(lp1008
F2
aF59
aa(lp1009
F2
aF54
aa(lp1010
F2
aF8
aa(lp1011
F2
aF22
aaa(lp1012
(lp1013
F0
aF672
aa(lp1014
F0
aF833
aa(lp1015
F0
aF524
aa(lp1016
F0
aF52
aa(lp1017
F0
aF786
aa(lp1018
F0
aF418
aa(lp1019
F0
aF534
aa(lp1020
F0
aF91
aa(lp1021
F0
aF390
aa(lp1022
F0
aF689
aa(lp1023
F0
aF533
aa(lp1024
F0
aF726
aa(lp1025
F0
aF528
aa(lp1026
F0
aF453
aa(lp1027
F0
aF427
aa(lp1028
F0
aF754
aa(lp1029
F0
aF447
aa(lp1030
F0
aF458
aa(lp1031
F0
aF325
aa(lp1032
F0
aF196
aa(lp1033
F0
aF185
aa(lp1034
F0
aF312
aa(lp1035
F0
aF707
aa(lp1036
F0
aF691
aa(lp1037
F0
aF327
aa(lp1038
F0
aF652
aa(lp1039
F0
aF423
aa(lp1040
F0
aF33
aa(lp1041
F0
aF106
aa(lp1042
F0
aF32
aa(lp1043
F0
aF573
aa(lp1044
F0
aF65
aa(lp1045
F0
aF421
aa(lp1046
F0
aF212
aa(lp1047
F0
aF371
aa(lp1048
F0
aF208
aa(lp1049
F0
aF9
aa(lp1050
F0
aF140
aa(lp1051
F0
aF479
aa(lp1052
F0
aF77
aa(lp1053
F0
aF697
aa(lp1054
F0
aF454
aa(lp1055
F0
aF474
aa(lp1056
F0
aF679
aa(lp1057
F0
aF330
aa(lp1058
F0
aF253
aa(lp1059
F0
aF657
aa(lp1060
F0
aF249
aa(lp1061
F0
aF728
aa(lp1062
F0
aF221
aa(lp1063
F0
aF676
aa(lp1064
F0
aF167
aa(lp1065
F0
aF23
aa(lp1066
F0
aF54
aa(lp1067
F0
aF219
aa(lp1068
F0
aF104
aa(lp1069
F0
aF217
aa(lp1070
F0
aF559
aa(lp1071
F0
aF591
aa(lp1072
F0
aF770
aa(lp1073
F0
aF482
aa(lp1074
F0
aF328
aa(lp1075
F1
aF279
aa(lp1076
F1
aF220
aa(lp1077
F1
aF266
aa(lp1078
F1
aF27
aa(lp1079
F1
aF394
aa(lp1080
F1
aF151
aa(lp1081
F1
aF374
aa(lp1082
F1
aF398
aa(lp1083
F1
aF37
aa(lp1084
F1
aF92
aa(lp1085
F1
aF179
aa(lp1086
F1
aF79
aa(lp1087
F1
aF309
aa(lp1088
F1
aF196
aa(lp1089
F1
aF225
aa(lp1090
F1
aF285
aa(lp1091
F1
aF44
aa(lp1092
F1
aF175
aa(lp1093
F1
aF207
aa(lp1094
F1
aF118
aa(lp1095
F1
aF277
aa(lp1096
F1
aF120
aa(lp1097
F1
aF112
aa(lp1098
F1
aF347
aa(lp1099
F1
aF20
aa(lp1100
F1
aF4
aa(lp1101
F1
aF81
aa(lp1102
F1
aF294
aa(lp1103
F1
aF335
aa(lp1104
F1
aF245
aa(lp1105
F1
aF226
aa(lp1106
F1
aF300
aa(lp1107
F2
aF44
aa(lp1108
F2
aF25
aa(lp1109
F2
aF46
aa(lp1110
F2
aF76
aa(lp1111
F2
aF6
aa(lp1112
F2
aF11
aaa(lp1113
(lp1114
F0
aF389
aa(lp1115
F0
aF375
aa(lp1116
F0
aF293
aa(lp1117
F0
aF296
aa(lp1118
F0
aF639
aa(lp1119
F0
aF495
aa(lp1120
F0
aF395
aa(lp1121
F0
aF743
aa(lp1122
F0
aF373
aa(lp1123
F0
aF98
aa(lp1124
F0
aF78
aa(lp1125
F0
aF230
aa(lp1126
F0
aF374
aa(lp1127
F0
aF308
aa(lp1128
F0
aF184
aa(lp1129
F0
aF315
aa(lp1130
F0
aF238
aa(lp1131
F0
aF723
aa(lp1132
F0
aF416
aa(lp1133
F0
aF510
aa(lp1134
F0
aF165
aa(lp1135
F0
aF456
aa(lp1136
F0
aF189
aa(lp1137
F0
aF783
aa(lp1138
F0
aF134
aa(lp1139
F0
aF587
aa(lp1140
F0
aF365
aa(lp1141
F0
aF484
aa(lp1142
F0
aF52
aa(lp1143
F0
aF170
aa(lp1144
F0
aF187
aa(lp1145
F0
aF706
aa(lp1146
F0
aF415
aa(lp1147
F0
aF626
aa(lp1148
F0
aF794
aa(lp1149
F0
aF358
aa(lp1150
F0
aF0
aa(lp1151
F0
aF261
aa(lp1152
F0
aF539
aa(lp1153
F0
aF549
aa(lp1154
F0
aF390
aa(lp1155
F0
aF450
aa(lp1156
F0
aF104
aa(lp1157
F0
aF13
aa(lp1158
F0
aF94
aa(lp1159
F0
aF434
aa(lp1160
F0
aF64
aa(lp1161
F0
aF349
aa(lp1162
F0
aF385
aa(lp1163
F0
aF632
aa(lp1164
F0
aF320
aa(lp1165
F0
aF394
aa(lp1166
F0
aF679
aa(lp1167
F0
aF515
aa(lp1168
F0
aF267
aa(lp1169
F0
aF260
aa(lp1170
F0
aF560
aa(lp1171
F0
aF603
aa(lp1172
F0
aF470
aa(lp1173
F0
aF707
aa(lp1174
F0
aF756
aa(lp1175
F0
aF464
aa(lp1176
F1
aF110
aa(lp1177
F1
aF277
aa(lp1178
F1
aF363
aa(lp1179
F1
aF210
aa(lp1180
F1
aF248
aa(lp1181
F1
aF155
aa(lp1182
F1
aF171
aa(lp1183
F1
aF289
aa(lp1184
F1
aF115
aa(lp1185
F1
aF9
aa(lp1186
F1
aF109
aa(lp1187
F1
aF256
aa(lp1188
F1
aF283
aa(lp1189
F1
aF146
aa(lp1190
F1
aF232
aa(lp1191
F1
aF343
aa(lp1192
F1
aF100
aa(lp1193
F1
aF269
aa(lp1194
F1
aF425
aa(lp1195
F1
aF37
aa(lp1196
F1
aF194
aa(lp1197
F1
aF296
aa(lp1198
F1
aF307
aa(lp1199
F1
aF82
aa(lp1200
F1
aF187
aa(lp1201
F1
aF239
aa(lp1202
F1
aF303
aa(lp1203
F1
aF50
aa(lp1204
F1
aF308
aa(lp1205
F1
aF386
aa(lp1206
F1
aF252
aa(lp1207
F1
aF281
aa(lp1208
F2
aF63
aa(lp1209
F2
aF64
aa(lp1210
F2
aF29
aa(lp1211
F2
aF69
aa(lp1212
F2
aF66
aa(lp1213
F2
aF19
aaa(lp1214
(lp1215
F0
aF804
aa(lp1216
F0
aF823
aa(lp1217
F0
aF194
aa(lp1218
F0
aF720
aa(lp1219
F0
aF586
aa(lp1220
F0
aF254
aa(lp1221
F0
aF817
aa(lp1222
F0
aF80
aa(lp1223
F0
aF212
aa(lp1224
F0
aF281
aa(lp1225
F0
aF236
aa(lp1226
F0
aF10
aa(lp1227
F0
aF539
aa(lp1228
F0
aF387
aa(lp1229
F0
aF583
aa(lp1230
F0
aF151
aa(lp1231
F0
aF761
aa(lp1232
F0
aF711
aa(lp1233
F0
aF134
aa(lp1234
F0
aF434
aa(lp1235
F0
aF6
aa(lp1236
F0
aF618
aa(lp1237
F0
aF808
aa(lp1238
F0
aF686
aa(lp1239
F0
aF187
aa(lp1240
F0
aF732
aa(lp1241
F0
aF178
aa(lp1242
F0
aF381
aa(lp1243
F0
aF634
aa(lp1244
F0
aF442
aa(lp1245
F0
aF505
aa(lp1246
F0
aF312
aa(lp1247
F0
aF334
aa(lp1248
F0
aF277
aa(lp1249
F0
aF378
aa(lp1250
F0
aF335
aa(lp1251
F0
aF500
aa(lp1252
F0
aF810
aa(lp1253
F0
aF156
aa(lp1254
F0
aF641
aa(lp1255
F0
aF533
aa(lp1256
F0
aF315
aa(lp1257
F0
aF296
aa(lp1258
F0
aF463
aa(lp1259
F0
aF356
aa(lp1260
F0
aF99
aa(lp1261
F0
aF703
aa(lp1262
F0
aF34
aa(lp1263
F0
aF576
aa(lp1264
F0
aF159
aa(lp1265
F0
aF161
aa(lp1266
F0
aF579
aa(lp1267
F0
aF349
aa(lp1268
F0
aF751
aa(lp1269
F0
aF433
aa(lp1270
F0
aF801
aa(lp1271
F0
aF94
aa(lp1272
F0
aF180
aa(lp1273
F0
aF122
aa(lp1274
F0
aF698
aa(lp1275
F0
aF465
aa(lp1276
F0
aF635
aa(lp1277
F1
aF303
aa(lp1278
F1
aF153
aa(lp1279
F1
aF336
aa(lp1280
F1
aF45
aa(lp1281
F1
aF352
aa(lp1282
F1
aF180
aa(lp1283
F1
aF23
aa(lp1284
F1
aF237
aa(lp1285
F1
aF335
aa(lp1286
F1
aF429
aa(lp1287
F1
aF248
aa(lp1288
F1
aF325
aa(lp1289
F1
aF239
aa(lp1290
F1
aF182
aa(lp1291
F1
aF277
aa(lp1292
F1
aF215
aa(lp1293
F1
aF280
aa(lp1294
F1
aF191
aa(lp1295
F1
aF58
aa(lp1296
F1
aF76
aa(lp1297
F1
aF346
aa(lp1298
F1
aF97
aa(lp1299
F1
aF20
aa(lp1300
F1
aF133
aa(lp1301
F1
aF190
aa(lp1302
F1
aF178
aa(lp1303
F1
aF207
aa(lp1304
F1
aF11
aa(lp1305
F1
aF407
aa(lp1306
F1
aF137
aa(lp1307
F1
aF88
aa(lp1308
F1
aF135
aa(lp1309
F2
aF37
aa(lp1310
F2
aF31
aa(lp1311
F2
aF10
aa(lp1312
F2
aF29
aa(lp1313
F2
aF19
aa(lp1314
F2
aF33
aaa(lp1315
(lp1316
F0
aF431
aa(lp1317
F0
aF232
aa(lp1318
F0
aF592
aa(lp1319
F0
aF542
aa(lp1320
F0
aF442
aa(lp1321
F0
aF275
aa(lp1322
F0
aF513
aa(lp1323
F0
aF114
aa(lp1324
F0
aF21
aa(lp1325
F0
aF671
aa(lp1326
F0
aF694
aa(lp1327
F0
aF414
aa(lp1328
F0
aF223
aa(lp1329
F0
aF712
aa(lp1330
F0
aF443
aa(lp1331
F0
aF718
aa(lp1332
F0
aF385
aa(lp1333
F0
aF255
aa(lp1334
F0
aF677
aa(lp1335
F0
aF688
aa(lp1336
F0
aF318
aa(lp1337
F0
aF49
aa(lp1338
F0
aF695
aa(lp1339
F0
aF751
aa(lp1340
F0
aF286
aa(lp1341
F0
aF234
aa(lp1342
F0
aF649
aa(lp1343
F0
aF384
aa(lp1344
F0
aF564
aa(lp1345
F0
aF302
aa(lp1346
F0
aF757
aa(lp1347
F0
aF679
aa(lp1348
F0
aF530
aa(lp1349
F0
aF805
aa(lp1350
F0
aF519
aa(lp1351
F0
aF742
aa(lp1352
F0
aF490
aa(lp1353
F0
aF722
aa(lp1354
F0
aF266
aa(lp1355
F0
aF539
aa(lp1356
F0
aF481
aa(lp1357
F0
aF735
aa(lp1358
F0
aF747
aa(lp1359
F0
aF10
aa(lp1360
F0
aF800
aa(lp1361
F0
aF83
aa(lp1362
F0
aF665
aa(lp1363
F0
aF656
aa(lp1364
F0
aF494
aa(lp1365
F0
aF63
aa(lp1366
F0
aF582
aa(lp1367
F0
aF432
aa(lp1368
F0
aF65
aa(lp1369
F0
aF119
aa(lp1370
F0
aF71
aa(lp1371
F0
aF621
aa(lp1372
F0
aF343
aa(lp1373
F0
aF134
aa(lp1374
F0
aF502
aa(lp1375
F0
aF674
aa(lp1376
F0
aF178
aa(lp1377
F0
aF198
aa(lp1378
F1
aF278
aa(lp1379
F1
aF386
aa(lp1380
F1
aF126
aa(lp1381
F1
aF174
aa(lp1382
F1
aF193
aa(lp1383
F1
aF35
aa(lp1384
F1
aF277
aa(lp1385
F1
aF402
aa(lp1386
F1
aF172
aa(lp1387
F1
aF41
aa(lp1388
F1
aF157
aa(lp1389
F1
aF332
aa(lp1390
F1
aF105
aa(lp1391
F1
aF71
aa(lp1392
F1
aF362
aa(lp1393
F1
aF375
aa(lp1394
F1
aF281
aa(lp1395
F1
aF302
aa(lp1396
F1
aF191
aa(lp1397
F1
aF414
aa(lp1398
F1
aF237
aa(lp1399
F1
aF355
aa(lp1400
F1
aF3
aa(lp1401
F1
aF234
aa(lp1402
F1
aF374
aa(lp1403
F1
aF142
aa(lp1404
F1
aF424
aa(lp1405
F1
aF197
aa(lp1406
F1
aF21
aa(lp1407
F1
aF84
aa(lp1408
F1
aF407
aa(lp1409
F1
aF103
aa(lp1410
F2
aF44
aa(lp1411
F2
aF63
aa(lp1412
F2
aF18
aa(lp1413
F2
aF13
aa(lp1414
F2
aF41
aa(lp1415
F2
aF14
aaa(lp1416
(lp1417
F0
aF174
aa(lp1418
F0
aF569
aa(lp1419
F0
aF220
aa(lp1420
F0
aF118
aa(lp1421
F0
aF297
aa(lp1422
F0
aF841
aa(lp1423
F0
aF26
aa(lp1424
F0
aF114
aa(lp1425
F0
aF535
aa(lp1426
F0
aF670
aa(lp1427
F0
aF518
aa(lp1428
F0
aF31
aa(lp1429
F0
aF327
aa(lp1430
F0
aF815
aa(lp1431
F0
aF75
aa(lp1432
F0
aF101
aa(lp1433
F0
aF742
aa(lp1434
F0
aF217
aa(lp1435
F0
aF316
aa(lp1436
F0
aF688
aa(lp1437
F0
aF630
aa(lp1438
F0
aF671
aa(lp1439
F0
aF787
aa(lp1440
F0
aF582
aa(lp1441
F0
aF299
aa(lp1442
F0
aF795
aa(lp1443
F0
aF545
aa(lp1444
F0
aF42
aa(lp1445
F0
aF640
aa(lp1446
F0
aF14
aa(lp1447
F0
aF136
aa(lp1448
F0
aF160
aa(lp1449
F0
aF810
aa(lp1450
F0
aF515
aa(lp1451
F0
aF632
aa(lp1452
F0
aF634
aa(lp1453
F0
aF3
aa(lp1454
F0
aF758
aa(lp1455
F0
aF505
aa(lp1456
F0
aF104
aa(lp1457
F0
aF605
aa(lp1458
F0
aF754
aa(lp1459
F0
aF475
aa(lp1460
F0
aF622
aa(lp1461
F0
aF709
aa(lp1462
F0
aF616
aa(lp1463
F0
aF554
aa(lp1464
F0
aF664
aa(lp1465
F0
aF510
aa(lp1466
F0
aF291
aa(lp1467
F0
aF588
aa(lp1468
F0
aF445
aa(lp1469
F0
aF247
aa(lp1470
F0
aF651
aa(lp1471
F0
aF513
aa(lp1472
F0
aF706
aa(lp1473
F0
aF298
aa(lp1474
F0
aF373
aa(lp1475
F0
aF395
aa(lp1476
F0
aF527
aa(lp1477
F0
aF28
aa(lp1478
F0
aF756
aa(lp1479
F1
aF278
aa(lp1480
F1
aF348
aa(lp1481
F1
aF107
aa(lp1482
F1
aF12
aa(lp1483
F1
aF105
aa(lp1484
F1
aF99
aa(lp1485
F1
aF216
aa(lp1486
F1
aF186
aa(lp1487
F1
aF77
aa(lp1488
F1
aF430
aa(lp1489
F1
aF206
aa(lp1490
F1
aF336
aa(lp1491
F1
aF409
aa(lp1492
F1
aF224
aa(lp1493
F1
aF288
aa(lp1494
F1
aF41
aa(lp1495
F1
aF103
aa(lp1496
F1
aF437
aa(lp1497
F1
aF401
aa(lp1498
F1
aF394
aa(lp1499
F1
aF369
aa(lp1500
F1
aF294
aa(lp1501
F1
aF176
aa(lp1502
F1
aF98
aa(lp1503
F1
aF432
aa(lp1504
F1
aF46
aa(lp1505
F1
aF379
aa(lp1506
F1
aF27
aa(lp1507
F1
aF215
aa(lp1508
F1
aF403
aa(lp1509
F1
aF168
aa(lp1510
F1
aF414
aa(lp1511
F2
aF67
aa(lp1512
F2
aF5
aa(lp1513
F2
aF66
aa(lp1514
F2
aF60
aa(lp1515
F2
aF3
aa(lp1516
F2
aF4
aaa(lp1517
(lp1518
F0
aF79
aa(lp1519
F0
aF588
aa(lp1520
F0
aF740
aa(lp1521
F0
aF561
aa(lp1522
F0
aF383
aa(lp1523
F0
aF829
aa(lp1524
F0
aF799
aa(lp1525
F0
aF462
aa(lp1526
F0
aF572
aa(lp1527
F0
aF833
aa(lp1528
F0
aF320
aa(lp1529
F0
aF524
aa(lp1530
F0
aF9
aa(lp1531
F0
aF229
aa(lp1532
F0
aF625
aa(lp1533
F0
aF166
aa(lp1534
F0
aF44
aa(lp1535
F0
aF134
aa(lp1536
F0
aF104
aa(lp1537
F0
aF99
aa(lp1538
F0
aF595
aa(lp1539
F0
aF449
aa(lp1540
F0
aF521
aa(lp1541
F0
aF611
aa(lp1542
F0
aF198
aa(lp1543
F0
aF167
aa(lp1544
F0
aF621
aa(lp1545
F0
aF27
aa(lp1546
F0
aF101
aa(lp1547
F0
aF493
aa(lp1548
F0
aF453
aa(lp1549
F0
aF127
aa(lp1550
F0
aF208
aa(lp1551
F0
aF522
aa(lp1552
F0
aF687
aa(lp1553
F0
aF544
aa(lp1554
F0
aF215
aa(lp1555
F0
aF731
aa(lp1556
F0
aF211
aa(lp1557
F0
aF620
aa(lp1558
F0
aF446
aa(lp1559
F0
aF708
aa(lp1560
F0
aF105
aa(lp1561
F0
aF791
aa(lp1562
F0
aF610
aa(lp1563
F0
aF74
aa(lp1564
F0
aF664
aa(lp1565
F0
aF487
aa(lp1566
F0
aF298
aa(lp1567
F0
aF533
aa(lp1568
F0
aF788
aa(lp1569
F0
aF629
aa(lp1570
F0
aF376
aa(lp1571
F0
aF679
aa(lp1572
F0
aF506
aa(lp1573
F0
aF534
aa(lp1574
F0
aF662
aa(lp1575
F0
aF840
aa(lp1576
F0
aF568
aa(lp1577
F0
aF703
aa(lp1578
F0
aF635
aa(lp1579
F0
aF718
aa(lp1580
F1
aF248
aa(lp1581
F1
aF137
aa(lp1582
F1
aF321
aa(lp1583
F1
aF88
aa(lp1584
F1
aF273
aa(lp1585
F1
aF434
aa(lp1586
F1
aF255
aa(lp1587
F1
aF285
aa(lp1588
F1
aF322
aa(lp1589
F1
aF367
aa(lp1590
F1
aF122
aa(lp1591
F1
aF36
aa(lp1592
F1
aF437
aa(lp1593
F1
aF283
aa(lp1594
F1
aF67
aa(lp1595
F1
aF368
aa(lp1596
F1
aF349
aa(lp1597
F1
aF403
aa(lp1598
F1
aF154
aa(lp1599
F1
aF225
aa(lp1600
F1
aF399
aa(lp1601
F1
aF337
aa(lp1602
F1
aF398
aa(lp1603
F1
aF294
aa(lp1604
F1
aF33
aa(lp1605
F1
aF11
aa(lp1606
F1
aF81
aa(lp1607
F1
aF123
aa(lp1608
F1
aF377
aa(lp1609
F1
aF384
aa(lp1610
F1
aF108
aa(lp1611
F1
aF70
aa(lp1612
F2
aF3
aa(lp1613
F2
aF64
aa(lp1614
F2
aF8
aa(lp1615
F2
aF46
aa(lp1616
F2
aF30
aa(lp1617
F2
aF74
aaa(lp1618
(lp1619
F0
aF604
aa(lp1620
F0
aF101
aa(lp1621
F0
aF124
aa(lp1622
F0
aF233
aa(lp1623
F0
aF779
aa(lp1624
F0
aF808
aa(lp1625
F0
aF178
aa(lp1626
F0
aF515
aa(lp1627
F0
aF437
aa(lp1628
F0
aF631
aa(lp1629
F0
aF166
aa(lp1630
F0
aF213
aa(lp1631
F0
aF185
aa(lp1632
F0
aF650
aa(lp1633
F0
aF17
aa(lp1634
F0
aF37
aa(lp1635
F0
aF579
aa(lp1636
F0
aF785
aa(lp1637
F0
aF484
aa(lp1638
F0
aF685
aa(lp1639
F0
aF106
aa(lp1640
F0
aF65
aa(lp1641
F0
aF267
aa(lp1642
F0
aF108
aa(lp1643
F0
aF527
aa(lp1644
F0
aF479
aa(lp1645
F0
aF27
aa(lp1646
F0
aF492
aa(lp1647
F0
aF712
aa(lp1648
F0
aF411
aa(lp1649
F0
aF294
aa(lp1650
F0
aF199
aa(lp1651
F0
aF201
aa(lp1652
F0
aF647
aa(lp1653
F0
aF450
aa(lp1654
F0
aF776
aa(lp1655
F0
aF140
aa(lp1656
F0
aF150
aa(lp1657
F0
aF469
aa(lp1658
F0
aF42
aa(lp1659
F0
aF656
aa(lp1660
F0
aF381
aa(lp1661
F0
aF299
aa(lp1662
F0
aF10
aa(lp1663
F0
aF832
aa(lp1664
F0
aF717
aa(lp1665
F0
aF556
aa(lp1666
F0
aF697
aa(lp1667
F0
aF391
aa(lp1668
F0
aF405
aa(lp1669
F0
aF61
aa(lp1670
F0
aF255
aa(lp1671
F0
aF420
aa(lp1672
F0
aF756
aa(lp1673
F0
aF360
aa(lp1674
F0
aF205
aa(lp1675
F0
aF276
aa(lp1676
F0
aF805
aa(lp1677
F0
aF111
aa(lp1678
F0
aF248
aa(lp1679
F0
aF541
aa(lp1680
F0
aF733
aa(lp1681
F1
aF155
aa(lp1682
F1
aF222
aa(lp1683
F1
aF323
aa(lp1684
F1
aF371
aa(lp1685
F1
aF85
aa(lp1686
F1
aF224
aa(lp1687
F1
aF115
aa(lp1688
F1
aF291
aa(lp1689
F1
aF94
aa(lp1690
F1
aF208
aa(lp1691
F1
aF345
aa(lp1692
F1
aF417
aa(lp1693
F1
aF236
aa(lp1694
F1
aF325
aa(lp1695
F1
aF15
aa(lp1696
F1
aF331
aa(lp1697
F1
aF203
aa(lp1698
F1
aF36
aa(lp1699
F1
aF0
aa(lp1700
F1
aF436
aa(lp1701
F1
aF7
aa(lp1702
F1
aF280
aa(lp1703
F1
aF348
aa(lp1704
F1
aF31
aa(lp1705
F1
aF67
aa(lp1706
F1
aF300
aa(lp1707
F1
aF293
aa(lp1708
F1
aF431
aa(lp1709
F1
aF97
aa(lp1710
F1
aF59
aa(lp1711
F1
aF195
aa(lp1712
F1
aF52
aa(lp1713
F2
aF39
aa(lp1714
F2
aF1
aa(lp1715
F2
aF23
aa(lp1716
F2
aF20
aa(lp1717
F2
aF5
aa(lp1718
F2
aF41
aaa(lp1719
(lp1720
F0
aF64
aa(lp1721
F0
aF675
aa(lp1722
F0
aF836
aa(lp1723
F0
aF395
aa(lp1724
F0
aF841
aa(lp1725
F0
aF678
aa(lp1726
F0
aF32
aa(lp1727
F0
aF77
aa(lp1728
F0
aF166
aa(lp1729
F0
aF593
aa(lp1730
F0
aF504
aa(lp1731
F0
aF336
aa(lp1732
F0
aF766
aa(lp1733
F0
aF533
aa(lp1734
F0
aF304
aa(lp1735
F0
aF357
aa(lp1736
F0
aF481
aa(lp1737
F0
aF716
aa(lp1738
F0
aF606
aa(lp1739
F0
aF269
aa(lp1740
F0
aF143
aa(lp1741
F0
aF457
aa(lp1742
F0
aF542
aa(lp1743
F0
aF306
aa(lp1744
F0
aF421
aa(lp1745
F0
aF531
aa(lp1746
F0
aF759
aa(lp1747
F0
aF248
aa(lp1748
F0
aF805
aa(lp1749
F0
aF782
aa(lp1750
F0
aF514
aa(lp1751
F0
aF300
aa(lp1752
F0
aF384
aa(lp1753
F0
aF441
aa(lp1754
F0
aF65
aa(lp1755
F0
aF273
aa(lp1756
F0
aF418
aa(lp1757
F0
aF33
aa(lp1758
F0
aF236
aa(lp1759
F0
aF139
aa(lp1760
F0
aF526
aa(lp1761
F0
aF831
aa(lp1762
F0
aF207
aa(lp1763
F0
aF252
aa(lp1764
F0
aF571
aa(lp1765
F0
aF47
aa(lp1766
F0
aF705
aa(lp1767
F0
aF575
aa(lp1768
F0
aF827
aa(lp1769
F0
aF25
aa(lp1770
F0
aF80
aa(lp1771
F0
aF378
aa(lp1772
F0
aF353
aa(lp1773
F0
aF434
aa(lp1774
F0
aF837
aa(lp1775
F0
aF97
aa(lp1776
F0
aF683
aa(lp1777
F0
aF200
aa(lp1778
F0
aF255
aa(lp1779
F0
aF253
aa(lp1780
F0
aF820
aa(lp1781
F0
aF415
aa(lp1782
F1
aF130
aa(lp1783
F1
aF168
aa(lp1784
F1
aF418
aa(lp1785
F1
aF64
aa(lp1786
F1
aF392
aa(lp1787
F1
aF52
aa(lp1788
F1
aF155
aa(lp1789
F1
aF432
aa(lp1790
F1
aF157
aa(lp1791
F1
aF178
aa(lp1792
F1
aF199
aa(lp1793
F1
aF190
aa(lp1794
F1
aF188
aa(lp1795
F1
aF102
aa(lp1796
F1
aF423
aa(lp1797
F1
aF14
aa(lp1798
F1
aF369
aa(lp1799
F1
aF398
aa(lp1800
F1
aF56
aa(lp1801
F1
aF36
aa(lp1802
F1
aF41
aa(lp1803
F1
aF109
aa(lp1804
F1
aF375
aa(lp1805
F1
aF338
aa(lp1806
F1
aF194
aa(lp1807
F1
aF125
aa(lp1808
F1
aF368
aa(lp1809
F1
aF240
aa(lp1810
F1
aF313
aa(lp1811
F1
aF236
aa(lp1812
F1
aF251
aa(lp1813
F1
aF250
aa(lp1814
F2
aF4
aa(lp1815
F2
aF65
aa(lp1816
F2
aF8
aa(lp1817
F2
aF45
aa(lp1818
F2
aF62
aa(lp1819
F2
aF30
aaa(lp1820
(lp1821
F0
aF813
aa(lp1822
F0
aF361
aa(lp1823
F0
aF431
aa(lp1824
F0
aF340
aa(lp1825
F0
aF152
aa(lp1826
F0
aF449
aa(lp1827
F0
aF482
aa(lp1828
F0
aF370
aa(lp1829
F0
aF55
aa(lp1830
F0
aF546
aa(lp1831
F0
aF397
aa(lp1832
F0
aF824
aa(lp1833
F0
aF88
aa(lp1834
F0
aF710
aa(lp1835
F0
aF506
aa(lp1836
F0
aF573
aa(lp1837
F0
aF677
aa(lp1838
F0
aF481
aa(lp1839
F0
aF764
aa(lp1840
F0
aF740
aa(lp1841
F0
aF730
aa(lp1842
F0
aF321
aa(lp1843
F0
aF26
aa(lp1844
F0
aF503
aa(lp1845
F0
aF819
aa(lp1846
F0
aF80
aa(lp1847
F0
aF637
aa(lp1848
F0
aF105
aa(lp1849
F0
aF469
aa(lp1850
F0
aF704
aa(lp1851
F0
aF510
aa(lp1852
F0
aF263
aa(lp1853
F0
aF62
aa(lp1854
F0
aF523
aa(lp1855
F0
aF406
aa(lp1856
F0
aF347
aa(lp1857
F0
aF757
aa(lp1858
F0
aF303
aa(lp1859
F0
aF833
aa(lp1860
F0
aF567
aa(lp1861
F0
aF767
aa(lp1862
F0
aF709
aa(lp1863
F0
aF504
aa(lp1864
F0
aF455
aa(lp1865
F0
aF242
aa(lp1866
F0
aF452
aa(lp1867
F0
aF514
aa(lp1868
F0
aF368
aa(lp1869
F0
aF51
aa(lp1870
F0
aF604
aa(lp1871
F0
aF313
aa(lp1872
F0
aF583
aa(lp1873
F0
aF652
aa(lp1874
F0
aF217
aa(lp1875
F0
aF815
aa(lp1876
F0
aF136
aa(lp1877
F0
aF376
aa(lp1878
F0
aF531
aa(lp1879
F0
aF427
aa(lp1880
F0
aF840
aa(lp1881
F0
aF725
aa(lp1882
F0
aF350
aa(lp1883
F1
aF154
aa(lp1884
F1
aF16
aa(lp1885
F1
aF411
aa(lp1886
F1
aF382
aa(lp1887
F1
aF56
aa(lp1888
F1
aF105
aa(lp1889
F1
aF392
aa(lp1890
F1
aF300
aa(lp1891
F1
aF275
aa(lp1892
F1
aF364
aa(lp1893
F1
aF425
aa(lp1894
F1
aF324
aa(lp1895
F1
aF44
aa(lp1896
F1
aF403
aa(lp1897
F1
aF86
aa(lp1898
F1
aF8
aa(lp1899
F1
aF151
aa(lp1900
F1
aF192
aa(lp1901
F1
aF305
aa(lp1902
F1
aF49
aa(lp1903
F1
aF53
aa(lp1904
F1
aF206
aa(lp1905
F1
aF15
aa(lp1906
F1
aF258
aa(lp1907
F1
aF72
aa(lp1908
F1
aF185
aa(lp1909
F1
aF22
aa(lp1910
F1
aF327
aa(lp1911
F1
aF101
aa(lp1912
F1
aF127
aa(lp1913
F1
aF281
aa(lp1914
F1
aF36
aa(lp1915
F2
aF71
aa(lp1916
F2
aF70
aa(lp1917
F2
aF35
aa(lp1918
F2
aF42
aa(lp1919
F2
aF22
aa(lp1920
F2
aF26
aaa(lp1921
(lp1922
F0
aF162
aa(lp1923
F0
aF0
aa(lp1924
F0
aF252
aa(lp1925
F0
aF792
aa(lp1926
F0
aF144
aa(lp1927
F0
aF743
aa(lp1928
F0
aF245
aa(lp1929
F0
aF770
aa(lp1930
F0
aF640
aa(lp1931
F0
aF431
aa(lp1932
F0
aF774
aa(lp1933
F0
aF196
aa(lp1934
F0
aF325
aa(lp1935
F0
aF16
aa(lp1936
F0
aF335
aa(lp1937
F0
aF586
aa(lp1938
F0
aF506
aa(lp1939
F0
aF28
aa(lp1940
F0
aF524
aa(lp1941
F0
aF466
aa(lp1942
F0
aF143
aa(lp1943
F0
aF659
aa(lp1944
F0
aF535
aa(lp1945
F0
aF827
aa(lp1946
F0
aF488
aa(lp1947
F0
aF615
aa(lp1948
F0
aF838
aa(lp1949
F0
aF634
aa(lp1950
F0
aF382
aa(lp1951
F0
aF185
aa(lp1952
F0
aF10
aa(lp1953
F0
aF398
aa(lp1954
F0
aF669
aa(lp1955
F0
aF789
aa(lp1956
F0
aF100
aa(lp1957
F0
aF559
aa(lp1958
F0
aF29
aa(lp1959
F0
aF149
aa(lp1960
F0
aF207
aa(lp1961
F0
aF371
aa(lp1962
F0
aF802
aa(lp1963
F0
aF546
aa(lp1964
F0
aF468
aa(lp1965
F0
aF104
aa(lp1966
F0
aF304
aa(lp1967
F0
aF240
aa(lp1968
F0
aF97
aa(lp1969
F0
aF776
aa(lp1970
F0
aF369
aa(lp1971
F0
aF107
aa(lp1972
F0
aF510
aa(lp1973
F0
aF700
aa(lp1974
F0
aF763
aa(lp1975
F0
aF666
aa(lp1976
F0
aF129
aa(lp1977
F0
aF460
aa(lp1978
F0
aF73
aa(lp1979
F0
aF413
aa(lp1980
F0
aF587
aa(lp1981
F0
aF216
aa(lp1982
F0
aF219
aa(lp1983
F0
aF577
aa(lp1984
F1
aF359
aa(lp1985
F1
aF169
aa(lp1986
F1
aF135
aa(lp1987
F1
aF208
aa(lp1988
F1
aF370
aa(lp1989
F1
aF272
aa(lp1990
F1
aF9
aa(lp1991
F1
aF165
aa(lp1992
F1
aF297
aa(lp1993
F1
aF168
aa(lp1994
F1
aF432
aa(lp1995
F1
aF319
aa(lp1996
F1
aF57
aa(lp1997
F1
aF381
aa(lp1998
F1
aF378
aa(lp1999
F1
aF189
aa(lp2000
F1
aF231
aa(lp2001
F1
aF101
aa(lp2002
F1
aF426
aa(lp2003
F1
aF385
aa(lp2004
F1
aF343
aa(lp2005
F1
aF318
aa(lp2006
F1
aF245
aa(lp2007
F1
aF310
aa(lp2008
F1
aF22
aa(lp2009
F1
aF2
aa(lp2010
F1
aF108
aa(lp2011
F1
aF220
aa(lp2012
F1
aF74
aa(lp2013
F1
aF139
aa(lp2014
F1
aF374
aa(lp2015
F1
aF70
aa(lp2016
F2
aF62
aa(lp2017
F2
aF59
aa(lp2018
F2
aF76
aa(lp2019
F2
aF60
aa(lp2020
F2
aF53
aa(lp2021
F2
aF74
aaa.